target datalayout = "e-m:e-p270:32:32-p271:32:32-p272:64:64-i64:64-i128:128-f80:128-n8:16:32:64-S128"
target triple = "x86_64-pc-linux-gnu"

; Function Attrs: nounwind uwtable
define internal ptr @nu_float_complex(ptr noundef %0, ptr noundef %1, ptr noundef %2) #0 {
  %4 = alloca ptr, align 8
  %5 = alloca ptr, align 8
  %6 = alloca ptr, align 8
  %7 = alloca { float, float }, align 4
  store ptr %0, ptr %4, align 8, !tbaa !8
  store ptr %1, ptr %5, align 8, !tbaa !43
  store ptr %2, ptr %6, align 8, !tbaa !49
  call void @llvm.lifetime.start.p0(i64 8, ptr %7) #8
  %8 = load ptr, ptr %5, align 8, !tbaa !43
  call void @llvm.memcpy.p0.p0.i64(ptr align 4 %7, ptr align 1 %8, i64 8, i1 false)
  %9 = getelementptr inbounds nuw { float, float }, ptr %7, i32 0, i32 0
  %10 = load float, ptr %9, align 4
  %11 = fpext float %10 to double
  %12 = getelementptr inbounds nuw { float, float }, ptr %7, i32 0, i32 1
  %13 = load float, ptr %12, align 4
  %14 = fpext float %13 to double
  %15 = call ptr @PyComplex_FromDoubles(double noundef %11, double noundef %14)
  call void @llvm.lifetime.end.p0(i64 8, ptr %7) #8
  ret ptr %15
}