; Function Attrs: nounwind uwtable
define internal ptr @nu_float_complex(ptr readnone captures(none) %0, ptr noundef readonly captures(none) %1, ptr readnone captures(none) %2) #0 {
  %.sroa.0.0.copyload = load float, ptr %1, align 1
  %.sroa.4.0..sroa_idx = getelementptr inbounds nuw i8, ptr %1, i64 4
  %.sroa.4.0.copyload = load float, ptr %.sroa.4.0..sroa_idx, align 1
  %4 = fpext float %.sroa.0.0.copyload to double
  %5 = fpext float %.sroa.4.0.copyload to double
  %6 = tail call ptr @PyComplex_FromDoubles(double noundef %4, double noundef %5) #7
  ret ptr %6
}